target datalayout = "e-m:e-p270:32:32-p271:32:32-p272:64:64-i64:64-i128:128-f80:128-n8:16:32:64-S128"
target triple = "x86_64-pc-linux-gnu"

@.str.41 = private unnamed_addr constant [8 x i8] c"DFilter\00", align 1
@.str.42 = private unnamed_addr constant [11 x i8] c"%s is NULL\00", align 1
@.str.44 = private unnamed_addr constant [24 x i8] c"%s:\0A LHS = %s\0A RHS = %s\00", align 1
@.str.45 = private unnamed_addr constant [5 x i8] c"NULL\00", align 1

; Function Attrs: null_pointer_is_valid sspstrong uwtable
define hidden void @log_test_full(i32 noundef %0, ptr noundef %1, i32 noundef %2, ptr noundef %3, ptr noundef %4, ptr noundef %5) #0 {
  %7 = alloca i32, align 4
  %8 = alloca ptr, align 8
  %9 = alloca i32, align 4
  %10 = alloca ptr, align 8
  %11 = alloca ptr, align 8
  %12 = alloca ptr, align 8
  %13 = alloca i32, align 4
  %14 = alloca ptr, align 8
  %15 = alloca ptr, align 8
  %16 = alloca ptr, align 8
  %17 = alloca ptr, align 8
  store i32 %0, ptr %7, align 4
  store ptr %1, ptr %8, align 8
  store i32 %2, ptr %9, align 4
  store ptr %3, ptr %10, align 8
  store ptr %4, ptr %11, align 8
  store ptr %5, ptr %12, align 8
  %18 = load i32, ptr %7, align 4
  %19 = call zeroext i1 @ws_log_msg_is_active(ptr noundef @.str.41, i32 noundef %18)
  br i1 %19, label %21, label %20

20:                                               ; preds = %6
  br label %68

21:                                               ; preds = %6
  %22 = load ptr, ptr %11, align 8
  %23 = icmp eq ptr %22, null
  br i1 %23, label %24, label %31

24:                                               ; preds = %21
  %25 = load i32, ptr %7, align 4
  %26 = load ptr, ptr %8, align 8
  %27 = load i32, ptr %9, align 4
  %28 = sext i32 %27 to i64
  %29 = load ptr, ptr %10, align 8
  %30 = load ptr, ptr %12, align 8
  call void (ptr, i32, ptr, i64, ptr, ptr, ...) @ws_log_write_always_full(ptr noundef @.str.41, i32 noundef %25, ptr noundef %26, i64 noundef %28, ptr noundef %29, ptr noundef @.str.42, ptr noundef %30)
  br label %68

31:                                               ; preds = %21
  call void @llvm.lifetime.start.p0(i64 4, ptr %13) #9
  call void @llvm.lifetime.start.p0(i64 8, ptr %14) #9
  store ptr null, ptr %14, align 8
  call void @llvm.lifetime.start.p0(i64 8, ptr %15) #9
  store ptr null, ptr %15, align 8
  call void @llvm.lifetime.start.p0(i64 8, ptr %16) #9
  store ptr null, ptr %16, align 8
  call void @llvm.lifetime.start.p0(i64 8, ptr %17) #9
  store ptr null, ptr %17, align 8
  %32 = load ptr, ptr %11, align 8
  call void @sttype_oper_get(ptr noundef %32, ptr noundef %13, ptr noundef %14, ptr noundef %15)
  %33 = load ptr, ptr %14, align 8
  %34 = icmp ne ptr %33, null
  br i1 %34, label %35, label %38

35:                                               ; preds = %31
  %36 = load ptr, ptr %14, align 8
  %37 = call ptr @sprint_node(ptr noundef %36)
  store ptr %37, ptr %16, align 8
  br label %38

38:                                               ; preds = %35, %31
  %39 = load ptr, ptr %15, align 8
  %40 = icmp ne ptr %39, null
  br i1 %40, label %41, label %44

41:                                               ; preds = %38
  %42 = load ptr, ptr %15, align 8
  %43 = call ptr @sprint_node(ptr noundef %42)
  store ptr %43, ptr %17, align 8
  br label %44

44:                                               ; preds = %41, %38
  %45 = load i32, ptr %7, align 4
  %46 = load ptr, ptr %8, align 8
  %47 = load i32, ptr %9, align 4
  %48 = sext i32 %47 to i64
  %49 = load ptr, ptr %10, align 8
  %50 = load ptr, ptr %11, align 8
  %51 = call ptr @stnode_tostr(ptr noundef %50, i1 noundef zeroext false)
  %52 = load ptr, ptr %16, align 8
  %53 = icmp ne ptr %52, null
  br i1 %53, label %54, label %56

54:                                               ; preds = %44
  %55 = load ptr, ptr %16, align 8
  br label %57

56:                                               ; preds = %44
  br label %57

57:                                               ; preds = %56, %54
  %58 = phi ptr [ %55, %54 ], [ @.str.45, %56 ]
  %59 = load ptr, ptr %17, align 8
  %60 = icmp ne ptr %59, null
  br i1 %60, label %61, label %63

61:                                               ; preds = %57
  %62 = load ptr, ptr %17, align 8
  br label %64

63:                                               ; preds = %57
  br label %64

64:                                               ; preds = %63, %61
  %65 = phi ptr [ %62, %61 ], [ @.str.45, %63 ]
  call void (ptr, i32, ptr, i64, ptr, ptr, ...) @ws_log_write_always_full(ptr noundef @.str.41, i32 noundef %45, ptr noundef %46, i64 noundef %48, ptr noundef %49, ptr noundef @.str.44, ptr noundef %51, ptr noundef %58, ptr noundef %65)
  %66 = load ptr, ptr %16, align 8
  call void @g_free(ptr noundef %66)
  %67 = load ptr, ptr %17, align 8
  call void @g_free(ptr noundef %67)
  call void @llvm.lifetime.end.p0(i64 8, ptr %17) #9
  call void @llvm.lifetime.end.p0(i64 8, ptr %16) #9
  call void @llvm.lifetime.end.p0(i64 8, ptr %15) #9
  call void @llvm.lifetime.end.p0(i64 8, ptr %14) #9
  call void @llvm.lifetime.end.p0(i64 4, ptr %13) #9
  br label %68

68:                                               ; preds = %64, %24, %20
  ret void
}