; Function Attrs: null_pointer_is_valid sspstrong uwtable
define hidden void @log_test_full(i32 noundef %0, ptr noundef %1, i32 noundef %2, ptr noundef %3, ptr noundef %4, ptr noundef %5) local_unnamed_addr #0 {
  %7 = alloca i32, align 4
  %8 = alloca ptr, align 8
  %9 = alloca ptr, align 8
  %10 = tail call zeroext i1 @ws_log_msg_is_active(ptr noundef nonnull @.str.41, i32 noundef %0)
  br i1 %10, label %11, label %28

11:                                               ; preds = %6
  %12 = icmp eq ptr %4, null
  br i1 %12, label %13, label %15

13:                                               ; preds = %11
  %14 = sext i32 %2 to i64
  tail call void (ptr, i32, ptr, i64, ptr, ptr, ...) @ws_log_write_always_full(ptr noundef nonnull @.str.41, i32 noundef %0, ptr noundef %1, i64 noundef %14, ptr noundef %3, ptr noundef nonnull @.str.42, ptr noundef %5)
  br label %28

15:                                               ; preds = %11
  call void @llvm.lifetime.start.p0(i64 4, ptr nonnull %7) #15
  call void @llvm.lifetime.start.p0(i64 8, ptr nonnull %8) #15
  store ptr null, ptr %8, align 8
  call void @llvm.lifetime.start.p0(i64 8, ptr nonnull %9) #15
  store ptr null, ptr %9, align 8
  call void @sttype_oper_get(ptr noundef nonnull %4, ptr noundef nonnull %7, ptr noundef nonnull %8, ptr noundef nonnull %9)
  %16 = load ptr, ptr %8, align 8
  %.not = icmp eq ptr %16, null
  br i1 %.not, label %19, label %17

17:                                               ; preds = %15
  %18 = call fastcc ptr @sprint_node(ptr noundef %16)
  br label %19

19:                                               ; preds = %17, %15
  %.018 = phi ptr [ %18, %17 ], [ null, %15 ]
  %20 = load ptr, ptr %9, align 8
  %.not22 = icmp eq ptr %20, null
  br i1 %.not22, label %23, label %21

21:                                               ; preds = %19
  %22 = call fastcc ptr @sprint_node(ptr noundef %20)
  br label %23

23:                                               ; preds = %21, %19
  %.0 = phi ptr [ %22, %21 ], [ null, %19 ]
  %24 = sext i32 %2 to i64
  %25 = call ptr @stnode_tostr(ptr noundef nonnull %4, i1 noundef zeroext false)
  %.not23 = icmp eq ptr %.018, null
  %26 = select i1 %.not23, ptr @.str.45, ptr %.018
  %.not24 = icmp eq ptr %.0, null
  %27 = select i1 %.not24, ptr @.str.45, ptr %.0
  call void (ptr, i32, ptr, i64, ptr, ptr, ...) @ws_log_write_always_full(ptr noundef nonnull @.str.41, i32 noundef %0, ptr noundef %1, i64 noundef %24, ptr noundef %3, ptr noundef nonnull @.str.44, ptr noundef %25, ptr noundef nonnull %26, ptr noundef nonnull %27)
  call void @g_free(ptr noundef %.018)
  call void @g_free(ptr noundef %.0)
  call void @llvm.lifetime.end.p0(i64 8, ptr nonnull %9) #15
  call void @llvm.lifetime.end.p0(i64 8, ptr nonnull %8) #15
  call void @llvm.lifetime.end.p0(i64 4, ptr nonnull %7) #15
  br label %28

28:                                               ; preds = %6, %23, %13
  ret void
}